(dp1
S'decoder'
p2
S'gru_cond'
p3
sS'decay_c'
p4
F0
sS'patience'
p5
I1000
sS'max_epochs'
p6
I5000
sS'dispFreq'
p7
I10
sS'overwrite'
p8
I00
sS'validFreq'
p9
I100
sS'prob_k'
p10
I1000
sS'clip_c'
p11
F1
sS'n_words_src'
p12
I30000
sS'saveto'
p13
S'model_hal.npz'
p14
sS'valid_batch_size'
p15
I32
sS'n_words'
p16
I30000
sS'optimizer'
p17
S'adadelta'
p18
sS'alpha_c'
p19
F0
sS'batch_size'
p20
I32
sS'encoder'
p21
S'gru'
p22
sS'use_dad'
p23
I01
sS'lrate'
p24
F0.0001
sS'valid_datasets'
p25
(lp26
S'/home/zhouh/Data/nmt/devntest/MT02/MT02.src'
p27
aS'/home/zhouh/Data/nmt/devntest/MT02/reference0'
p28
asS'dim'
p29
I1000
sS'use_dropout'
p30
I00
sS'datasets'
p31
(lp32
S'/home/zhouh/Data/nmt/corpus.ch'
p33
aS'/home/zhouh/Data/nmt/corpus.en'
p34
asS'dim_word'
p35
I600
sS'sampleFreq'
p36
I100
sS'dictionaries'
p37
(lp38
S'/home/zhouh/Data/nmt/corpus.ch.pkl'
p39
aS'/home/zhouh/Data/nmt/corpus.en.pkl'
p40
asS'reload_'
p41
I01
sS'maxlen'
p42
I50
sS'finish_after'
p43
I10000000
sS'batch_trained_number'
p44
I2
sS'saveFreq'
p45
I1000
s.